

Microchip Technology PIC18 LITE Macro Assembler V1.33 build 59893 
                                                                                               Mon Nov 03 14:12:12 2014

Microchip Technology Omniscient Code Generator (Lite mode) build 59893
     1                           	processor	18F4520
     2                           	fnconf	rparam,??,?,0
     3                           	opt	pw 120
     4                           	opt	lm
     5                           	psect	idataCOMRAM,global,class=CODE,delta=1
     6                           	psect	smallconst,global,reloc=2,class=SMALLCONST,delta=1
     7                           	psect	cinit,global,reloc=2,class=CODE,delta=1
     8                           	psect	bssCOMRAM,global,class=COMRAM,space=1,delta=1
     9                           	psect	dataCOMRAM,global,class=COMRAM,space=1,delta=1
    10                           	psect	cstackCOMRAM,global,class=COMRAM,space=1,delta=1
    11                           	psect	text0,global,reloc=2,class=CODE,delta=1
    12                           	psect	text1,global,reloc=2,class=CODE,delta=1
    13                           	psect	text2,global,reloc=2,class=CODE,delta=1
    14                           	psect	text3,global,reloc=2,class=CODE,delta=1
    15                           	psect	intcode,global,reloc=2,class=CODE,delta=1
    16                           	psect	intcode_body,global,reloc=2,class=CODE,delta=1
    17                           	psect	text5,global,reloc=2,class=CODE,delta=1
    18                           	psect	text6,global,reloc=2,class=CODE,delta=1
    19                           	psect	intsave_regs,global,class=BIGRAM,space=1,delta=1
    20                           	psect	rparam,global,class=COMRAM,space=1,delta=1
    21  0000                     
    22                           	psect	idataCOMRAM
    23  0007DC                     __pidataCOMRAM:
    24                           	opt stack 0
    25                           
    26                           ;initializer for _hexPatterns
    27  0007DC  77                 	db	119
    28  0007DD  14                 	db	20
    29  0007DE  B3                 	db	179
    30  0007DF  B6                 	db	182
    31  0007E0  D4                 	db	212
    32  0007E1  E6                 	db	230
    33  0007E2  E7                 	db	231
    34  0007E3  34                 	db	52
    35  0007E4  F7                 	db	247
    36  0007E5  F4                 	db	244
    37  0007E6  F5                 	db	245
    38  0007E7  C7                 	db	199
    39  0007E8  63                 	db	99
    40  0007E9  97                 	db	151
    41  0007EA  E3                 	db	227
    42  0007EB  E1                 	db	225
    43  0000                     _INTCONbits	set	4082
    44  0000                     _OSCCONbits	set	4051
    45  0000                     _PIE1bits	set	3997
    46  0000                     _PIR1bits	set	3998
    47  0000                     _PORTBbits	set	3969
    48  0000                     _PORTCbits	set	3970
    49  0000                     _RCREG	set	4014
    50  0000                     _RCSTA	set	4011
    51  0000                     _RCSTAbits	set	4011
    52  0000                     _SPBRG	set	4015
    53  0000                     _SPBRGH	set	4016
    54  0000                     _SSPBUF	set	4041
    55  0000                     _SSPCON1	set	4038
    56  0000                     _SSPCON1bits	set	4038
    57  0000                     _T0CON	set	4053
    58  0000                     _T0CONbits	set	4053
    59  0000                     _TMR0H	set	4055
    60  0000                     _TMR0L	set	4054
    61  0000                     _TRISBbits	set	3987
    62  0000                     _TRISCbits	set	3988
    63  0000                     _TXREG	set	4013
    64  0000                     _TXSTA	set	4012
    65  0000                     _TXSTAbits	set	4012
    66                           
    67                           	psect	smallconst
    68  000600                     __psmallconst:
    69                           	opt stack 0
    70  000600  00                 	db	0
    71  000601                     __stringdata:
    72                           	opt stack 0
    73  000601  74                 	db	116	;'t'
    74  000602  61                 	db	97	;'a'
    75  000603  6B                 	db	107	;'k'
    76  000604  20                 	db	32
    77  000605  6A                 	db	106	;'j'
    78  000606  61                 	db	97	;'a'
    79  000607  64                 	db	100	;'d'
    80  000608  69                 	db	105	;'i'
    81  000609  20                 	db	32
    82  00060A  79                 	db	121	;'y'
    83  00060B  69                 	db	105	;'i'
    84  00060C  65                 	db	101	;'e'
    85  00060D  6C                 	db	108	;'l'
    86  00060E  64                 	db	100	;'d'
    87  00060F  32                 	db	50	;'2'
    88  000610  0A                 	db	10
    89  000611  00                 	db	0
    90  000612  62                 	db	98	;'b'
    91  000613  65                 	db	101	;'e'
    92  000614  66                 	db	102	;'f'
    93  000615  6F                 	db	111	;'o'
    94  000616  72                 	db	114	;'r'
    95  000617  65                 	db	101	;'e'
    96  000618  20                 	db	32
    97  000619  79                 	db	121	;'y'
    98  00061A  69                 	db	105	;'i'
    99  00061B  65                 	db	101	;'e'
   100  00061C  6C                 	db	108	;'l'
   101  00061D  64                 	db	100	;'d'
   102  00061E  31                 	db	49	;'1'
   103  00061F  0A                 	db	10
   104  000620  00                 	db	0
   105  000621  61                 	db	97	;'a'
   106  000622  66                 	db	102	;'f'
   107  000623  74                 	db	116	;'t'
   108  000624  65                 	db	101	;'e'
   109  000625  72                 	db	114	;'r'
   110  000626  20                 	db	32
   111  000627  79                 	db	121	;'y'
   112  000628  69                 	db	105	;'i'
   113  000629  65                 	db	101	;'e'
   114  00062A  6C                 	db	108	;'l'
   115  00062B  64                 	db	100	;'d'
   116  00062C  20                 	db	32
   117  00062D  32                 	db	50	;'2'
   118  00062E  0A                 	db	10
   119  00062F  00                 	db	0
   120  000630  62                 	db	98	;'b'
   121  000631  65                 	db	101	;'e'
   122  000632  66                 	db	102	;'f'
   123  000633  6F                 	db	111	;'o'
   124  000634  72                 	db	114	;'r'
   125  000635  65                 	db	101	;'e'
   126  000636  20                 	db	32
   127  000637  79                 	db	121	;'y'
   128  000638  69                 	db	105	;'i'
   129  000639  65                 	db	101	;'e'
   130  00063A  6C                 	db	108	;'l'
   131  00063B  64                 	db	100	;'d'
   132  00063C  32                 	db	50	;'2'
   133  00063D  0A                 	db	10
   134  00063E  00                 	db	0
   135  00063F  61                 	db	97	;'a'
   136  000640  66                 	db	102	;'f'
   137  000641  74                 	db	116	;'t'
   138  000642  65                 	db	101	;'e'
   139  000643  72                 	db	114	;'r'
   140  000644  20                 	db	32
   141  000645  79                 	db	121	;'y'
   142  000646  69                 	db	105	;'i'
   143  000647  65                 	db	101	;'e'
   144  000648  6C                 	db	108	;'l'
   145  000649  64                 	db	100	;'d'
   146  00064A  31                 	db	49	;'1'
   147  00064B  0A                 	db	10
   148  00064C  00                 	db	0
   149  00064D  4C                 	db	76	;'L'
   150  00064E  45                 	db	69	;'E'
   151  00064F  44                 	db	68	;'D'
   152  000650  32                 	db	50	;'2'
   153  000651  5F                 	db	95	;'_'
   154  000652  49                 	db	73	;'I'
   155  000653  4E                 	db	78	;'N'
   156  000654  49                 	db	73	;'I'
   157  000655  54                 	db	84	;'T'
   158  000656  0A                 	db	10
   159  000657  00                 	db	0
   160  000658                     __end_of__stringdata:
   161                           	opt stack 0
   162                           
   163                           ; #config settings
   164  000658  00                 	db	0	; dummy byte at the end
   165  0000                     
   166                           	psect	cinit
   167  00072E                     __pcinit:
   168                           	opt stack 0
   169  00072E                     start_initialization:
   170                           	opt stack 0
   171  00072E                     __initialization:
   172                           	opt stack 0
   173                           
   174                           ; Clear objects allocated to COMRAM (8 bytes)
   175  00072E  EE00  F025         	lfsr	0,__pbssCOMRAM
   176  000732  0E08               	movlw	8
   177  000734                     clear_0:
   178  000734  6AEE               	clrf	postinc0,c
   179  000736  06E8               	decf	wreg,f,c
   180  000738  E1FD               	bnz	clear_0
   181                           
   182                           ; Initialize objects allocated to COMRAM (16 bytes)
   183                           ; load TBLPTR registers with __pidataCOMRAM
   184  00073A  0EDC               	movlw	low __pidataCOMRAM
   185  00073C  6EF6               	movwf	tblptrl,c
   186  00073E  0E07               	movlw	high __pidataCOMRAM
   187  000740  6EF7               	movwf	tblptrh,c
   188  000742  0E00               	movlw	low (__pidataCOMRAM shr (0+16))
   189  000744  6EF8               	movwf	tblptru,c
   190  000746  EE00  F015         	lfsr	0,__pdataCOMRAM
   191  00074A  EE10 F010          	lfsr	1,16
   192  00074E                     copy_data0:
   193  00074E  0009               	tblrd		*+
   194  000750  CFF5 FFEE          	movff	tablat,postinc0
   195  000754  50E5               	movf	postdec1,w,c
   196  000756  50E1               	movf	fsr1l,w,c
   197  000758  E1FA               	bnz	copy_data0
   198  00075A                     end_of_initialization:
   199                           	opt stack 0
   200  00075A                     __end_of__initialization:
   201                           	opt stack 0
   202  00075A  0E00               	movlw	low (__Lmediumconst shr (0+16))
   203  00075C  6EF8               	movwf	tblptru,c
   204  00075E  0100               	movlb	0
   205  000760  EFE1  F003         	goto	_main	;jump to C main() function
   206                           tblptru	equ	0xFF8
   207                           tblptrh	equ	0xFF7
   208                           tblptrl	equ	0xFF6
   209                           tablat	equ	0xFF5
   210                           postinc0	equ	0xFEE
   211                           wreg	equ	0xFE8
   212                           postdec1	equ	0xFE5
   213                           fsr1l	equ	0xFE1
   214                           
   215                           	psect	bssCOMRAM
   216  000025                     __pbssCOMRAM:
   217                           	opt stack 0
   218  000025                     _clock:
   219                           	opt stack 0
   220  000025                     	ds	4
   221  000029                     _USART_Status:
   222                           	opt stack 0
   223  000029                     	ds	1
   224  00002A                     _bankSelectReg:
   225                           	opt stack 0
   226  00002A                     	ds	1
   227  00002B                     _statusReg:
   228                           	opt stack 0
   229  00002B                     	ds	1
   230  00002C                     _workingReg:
   231                           	opt stack 0
   232  00002C                     	ds	1
   233                           tblptru	equ	0xFF8
   234                           tblptrh	equ	0xFF7
   235                           tblptrl	equ	0xFF6
   236                           tablat	equ	0xFF5
   237                           postinc0	equ	0xFEE
   238                           wreg	equ	0xFE8
   239                           postdec1	equ	0xFE5
   240                           fsr1l	equ	0xFE1
   241                           
   242                           	psect	dataCOMRAM
   243  000015                     __pdataCOMRAM:
   244                           	opt stack 0
   245  000015                     _hexPatterns:
   246                           	opt stack 0
   247  000015                     	ds	16
   248                           tblptru	equ	0xFF8
   249                           tblptrh	equ	0xFF7
   250                           tblptrl	equ	0xFF6
   251                           tablat	equ	0xFF5
   252                           postinc0	equ	0xFEE
   253                           wreg	equ	0xFE8
   254                           postdec1	equ	0xFE5
   255                           fsr1l	equ	0xFE1
   256                           
   257                           	psect	cstackCOMRAM
   258  000001                     __pcstackCOMRAM:
   259                           	opt stack 0
   260  000001                     ??_interruptSR:
   261                           
   262                           ; 0 bytes @ 0x0
   263  000001                     	ds	14
   264  00000F                     OpenTimer0@config:
   265                           	opt stack 0
   266  00000F                     OpenUSART@spbrg:
   267                           	opt stack 0
   268                           
   269                           ; 2 bytes @ 0xE
   270  00000F                     	ds	1
   271  000010                     
   272                           ; 0 bytes @ 0xF
   273  000010                     	ds	1
   274  000011                     ??_OpenUSART:
   275                           
   276                           ; 0 bytes @ 0x10
   277  000011                     	ds	3
   278  000014                     OpenUSART@config:
   279                           	opt stack 0
   280                           
   281                           ; 1 bytes @ 0x13
   282  000014                     	ds	1
   283  000015                     tblptru	equ	0xFF8
   284                           tblptrh	equ	0xFF7
   285                           tblptrl	equ	0xFF6
   286                           tablat	equ	0xFF5
   287                           postinc0	equ	0xFEE
   288                           wreg	equ	0xFE8
   289                           postdec1	equ	0xFE5
   290                           fsr1l	equ	0xFE1
   291                           
   292                           ; 0 bytes @ 0x14
   293 ;;
   294 ;;Main: autosize = 0, tempsize = 0, incstack = 0, save=0
   295 ;;
   296 ;; *************** function _main *****************
   297 ;; Defined at:
   298 ;;		line 29 in file "../src/PIC18/main.c"
   299 ;; Parameters:    Size  Location     Type
   300 ;;		None
   301 ;; Auto vars:     Size  Location     Type
   302 ;;  sevenSegData    7    0        struct SevenSegData
   303 ;;  led2Data        7    0        struct Led2Data
   304 ;;  loopbackData    2    0        struct LoopbackData
   305 ;; Return value:  Size  Location     Type
   306 ;;		None               void
   307 ;; Registers used:
   308 ;;		wreg, status,2, status,0, cstack
   309 ;; Tracked objects:
   310 ;;		On entry : 0/0
   311 ;;		On exit  : 0/0
   312 ;;		Unchanged: 0/0
   313 ;; Data sizes:     COMRAM   BANK0   BANK1   BANK2   BANK3   BANK4   BANK5
   314 ;;      Params:         0       0       0       0       0       0       0
   315 ;;      Locals:         0       0       0       0       0       0       0
   316 ;;      Temps:          0       0       0       0       0       0       0
   317 ;;      Totals:         0       0       0       0       0       0       0
   318 ;;Total ram usage:        0 bytes
   319 ;; Hardware stack levels required when called:    5
   320 ;; This function calls:
   321 ;;		_OpenUSART
   322 ;;		_initClock
   323 ;; This function is called by:
   324 ;;		Startup code after reset
   325 ;; This function uses a non-reentrant model
   326 ;;
   327                           
   328                           	psect	text0
   329  0007C2                     __ptext0:
   330                           	opt stack 0
   331  0007C2                     _main:
   332                           	opt stack 26
   333                           
   334                           ;main.c: 30: (OSCCONbits.IRCF = 7);
   335                           
   336                           ;incstack = 0
   337  0007C2  88D3               	bsf	4051,4,c	;volatile
   338  0007C4  8AD3               	bsf	4051,5,c	;volatile
   339  0007C6  8CD3               	bsf	4051,6,c	;volatile
   340                           
   341                           ;main.c: 31: OpenUSART(0b01111111 & 0b10111111 & 0b11111110 & 0b11111101 & 0b11111111 & 
      +                          0b11111111, 51);;
   342  0007C8  0E00               	movlw	0
   343  0007CA  6E10               	movwf	OpenUSART@spbrg+1,c
   344  0007CC  0E33               	movlw	51
   345  0007CE  6E0F               	movwf	OpenUSART@spbrg,c
   346  0007D0  0E3C               	movlw	60
   347  0007D2  EC63  F003         	call	_OpenUSART
   348                           
   349                           ;main.c: 34: LoopbackData loopbackData;
   350                           ;main.c: 36: Led2Data led2Data;
   351                           ;main.c: 37: SevenSegData sevenSegData;
   352                           ;main.c: 39: initClock();
   353  0007D6  ECD3  F003         	call	_initClock	;wreg free
   354  0007DA                     l29:
   355  0007DA  D7FF               	goto	l29
   356  0007DC                     __end_of_main:
   357                           	opt stack 0
   358                           tblptru	equ	0xFF8
   359                           tblptrh	equ	0xFF7
   360                           tblptrl	equ	0xFF6
   361                           tablat	equ	0xFF5
   362                           postinc0	equ	0xFEE
   363                           wreg	equ	0xFE8
   364                           postdec1	equ	0xFE5
   365                           fsr1l	equ	0xFE1
   366                           
   367 ;; *************** function _initClock *****************
   368 ;; Defined at:
   369 ;;		line 8 in file "../src/PIC18/Clock.c"
   370 ;; Parameters:    Size  Location     Type
   371 ;;		None
   372 ;; Auto vars:     Size  Location     Type
   373 ;;		None
   374 ;; Return value:  Size  Location     Type
   375 ;;		None               void
   376 ;; Registers used:
   377 ;;		wreg, status,2, status,0, cstack
   378 ;; Tracked objects:
   379 ;;		On entry : 0/0
   380 ;;		On exit  : 0/0
   381 ;;		Unchanged: 0/0
   382 ;; Data sizes:     COMRAM   BANK0   BANK1   BANK2   BANK3   BANK4   BANK5
   383 ;;      Params:         0       0       0       0       0       0       0
   384 ;;      Locals:         0       0       0       0       0       0       0
   385 ;;      Temps:          0       0       0       0       0       0       0
   386 ;;      Totals:         0       0       0       0       0       0       0
   387 ;;Total ram usage:        0 bytes
   388 ;; Hardware stack levels used:    1
   389 ;; Hardware stack levels required when called:    4
   390 ;; This function calls:
   391 ;;		_OpenTimer0
   392 ;; This function is called by:
   393 ;;		_main
   394 ;; This function uses a non-reentrant model
   395 ;;
   396                           
   397                           	psect	text1
   398  0007A6                     __ptext1:
   399                           	opt stack 0
   400  0007A6                     _initClock:
   401                           	opt stack 26
   402                           
   403                           ;Clock.c: 9: clock = 0;
   404                           
   405                           ;incstack = 0
   406  0007A6  0E00               	movlw	0
   407  0007A8  6E25               	movwf	_clock,c	;volatile
   408  0007AA  0E00               	movlw	0
   409  0007AC  6E26               	movwf	_clock+1,c	;volatile
   410  0007AE  0E00               	movlw	0
   411  0007B0  6E27               	movwf	_clock+2,c	;volatile
   412  0007B2  0E00               	movlw	0
   413  0007B4  6E28               	movwf	_clock+3,c	;volatile
   414                           
   415                           ;Clock.c: 10: (INTCONbits.GIE = 1);
   416  0007B6  8EF2               	bsf	intcon,7,c	;volatile
   417                           
   418                           ;Clock.c: 11: OpenTimer0( 0b11111111 &
   419                           ;Clock.c: 12: 0b11111111 &
   420                           ;Clock.c: 13: 0b11011111 &
   421                           ;Clock.c: 14: 0b11110010 );
   422  0007B8  0ED2               	movlw	210
   423  0007BA  ECC3  F003         	call	_OpenTimer0
   424                           
   425                           ;Clock.c: 16: INTCONbits.TMR0IF = 0;
   426  0007BE  94F2               	bcf	intcon,2,c	;volatile
   427  0007C0  0012               	return	
   428  0007C2                     __end_of_initClock:
   429                           	opt stack 0
   430                           tblptru	equ	0xFF8
   431                           tblptrh	equ	0xFF7
   432                           tblptrl	equ	0xFF6
   433                           tablat	equ	0xFF5
   434                           intcon	equ	0xFF2
   435                           postinc0	equ	0xFEE
   436                           wreg	equ	0xFE8
   437                           postdec1	equ	0xFE5
   438                           fsr1l	equ	0xFE1
   439                           
   440 ;; *************** function _OpenTimer0 *****************
   441 ;; Defined at:
   442 ;;		line 18 in file "C:\Program Files\Microchip\xc8\v1.33\sources\pic18\plib\Timers\t0open.c"
   443 ;; Parameters:    Size  Location     Type
   444 ;;  config          1    wreg     unsigned char 
   445 ;; Auto vars:     Size  Location     Type
   446 ;;  config          1   14[COMRAM] unsigned char 
   447 ;; Return value:  Size  Location     Type
   448 ;;		None               void
   449 ;; Registers used:
   450 ;;		wreg, status,2, status,0
   451 ;; Tracked objects:
   452 ;;		On entry : 0/0
   453 ;;		On exit  : 0/0
   454 ;;		Unchanged: 0/0
   455 ;; Data sizes:     COMRAM   BANK0   BANK1   BANK2   BANK3   BANK4   BANK5
   456 ;;      Params:         0       0       0       0       0       0       0
   457 ;;      Locals:         1       0       0       0       0       0       0
   458 ;;      Temps:          0       0       0       0       0       0       0
   459 ;;      Totals:         1       0       0       0       0       0       0
   460 ;;Total ram usage:        1 bytes
   461 ;; Hardware stack levels used:    1
   462 ;; Hardware stack levels required when called:    3
   463 ;; This function calls:
   464 ;;		Nothing
   465 ;; This function is called by:
   466 ;;		_initClock
   467 ;; This function uses a non-reentrant model
   468 ;;
   469                           
   470                           	psect	text2
   471  000786                     __ptext2:
   472                           	opt stack 0
   473  000786                     _OpenTimer0:
   474                           	opt stack 26
   475                           
   476                           ;incstack = 0
   477                           ;OpenTimer0@config stored from wreg
   478  000786  6E0F               	movwf	OpenTimer0@config,c
   479  000788  500F               	movf	OpenTimer0@config,w,c
   480  00078A  0B7F               	andlw	127
   481  00078C  6ED5               	movwf	4053,c	;volatile
   482  00078E  0E00               	movlw	0
   483  000790  6ED7               	movwf	4055,c	;volatile
   484  000792  0E00               	movlw	0
   485  000794  6ED6               	movwf	4054,c	;volatile
   486  000796  94F2               	bcf	intcon,2,c	;volatile
   487  000798  AE0F               	btfss	OpenTimer0@config,7,c
   488  00079A  D002               	goto	l215
   489  00079C  8AF2               	bsf	intcon,5,c	;volatile
   490  00079E  D001               	goto	l216
   491  0007A0                     l215:
   492  0007A0  9AF2               	bcf	intcon,5,c	;volatile
   493  0007A2                     l216:
   494  0007A2  8ED5               	bsf	4053,7,c	;volatile
   495  0007A4  0012               	return	
   496  0007A6                     __end_of_OpenTimer0:
   497                           	opt stack 0
   498                           tblptru	equ	0xFF8
   499                           tblptrh	equ	0xFF7
   500                           tblptrl	equ	0xFF6
   501                           tablat	equ	0xFF5
   502                           intcon	equ	0xFF2
   503                           postinc0	equ	0xFEE
   504                           wreg	equ	0xFE8
   505                           postdec1	equ	0xFE5
   506                           fsr1l	equ	0xFE1
   507                           
   508 ;; *************** function _OpenUSART *****************
   509 ;; Defined at:
   510 ;;		line 73 in file "C:\Program Files\Microchip\xc8\v1.33\sources\pic18\plib\USART\uopen.c"
   511 ;; Parameters:    Size  Location     Type
   512 ;;  config          1    wreg     unsigned char 
   513 ;;  spbrg           2   14[COMRAM] unsigned int 
   514 ;; Auto vars:     Size  Location     Type
   515 ;;  config          1   19[COMRAM] unsigned char 
   516 ;; Return value:  Size  Location     Type
   517 ;;		None               void
   518 ;; Registers used:
   519 ;;		wreg, status,2
   520 ;; Tracked objects:
   521 ;;		On entry : 0/0
   522 ;;		On exit  : 0/0
   523 ;;		Unchanged: 0/0
   524 ;; Data sizes:     COMRAM   BANK0   BANK1   BANK2   BANK3   BANK4   BANK5
   525 ;;      Params:         2       0       0       0       0       0       0
   526 ;;      Locals:         1       0       0       0       0       0       0
   527 ;;      Temps:          3       0       0       0       0       0       0
   528 ;;      Totals:         6       0       0       0       0       0       0
   529 ;;Total ram usage:        6 bytes
   530 ;; Hardware stack levels used:    1
   531 ;; Hardware stack levels required when called:    3
   532 ;; This function calls:
   533 ;;		Nothing
   534 ;; This function is called by:
   535 ;;		_main
   536 ;; This function uses a non-reentrant model
   537 ;;
   538                           
   539                           	psect	text3
   540  0006C6                     __ptext3:
   541                           	opt stack 0
   542  0006C6                     _OpenUSART:
   543                           	opt stack 27
   544                           
   545                           ;incstack = 0
   546                           ;OpenUSART@config stored from wreg
   547  0006C6  6E14               	movwf	OpenUSART@config,c
   548  0006C8  0E00               	movlw	0
   549  0006CA  6EAC               	movwf	4012,c	;volatile
   550  0006CC  0E00               	movlw	0
   551  0006CE  6EAB               	movwf	4011,c	;volatile
   552  0006D0  B014               	btfsc	OpenUSART@config,0,c
   553  0006D2  88AC               	bsf	4012,4,c	;volatile
   554  0006D4  A214               	btfss	OpenUSART@config,1,c
   555  0006D6  D002               	goto	l893
   556  0006D8  8CAC               	bsf	4012,6,c	;volatile
   557  0006DA  8CAB               	bsf	4011,6,c	;volatile
   558  0006DC                     l893:
   559  0006DC  B414               	btfsc	OpenUSART@config,2,c
   560  0006DE  8EAC               	bsf	4012,7,c	;volatile
   561  0006E0  A614               	btfss	OpenUSART@config,3,c
   562  0006E2  D002               	goto	l241
   563  0006E4  88AB               	bsf	4011,4,c	;volatile
   564  0006E6  D001               	goto	l901
   565  0006E8                     l241:
   566  0006E8  8AAB               	bsf	4011,5,c	;volatile
   567  0006EA                     l901:
   568  0006EA  B814               	btfsc	OpenUSART@config,4,c
   569  0006EC  84AC               	bsf	4012,2,c	;volatile
   570  0006EE  989E               	bcf	3998,4,c	;volatile
   571  0006F0  BA14               	btfsc	OpenUSART@config,5,c
   572  0006F2  86AB               	bsf	4011,3,c	;volatile
   573  0006F4  AC14               	btfss	OpenUSART@config,6,c
   574  0006F6  D002               	goto	l245
   575  0006F8  8A9D               	bsf	3997,5,c	;volatile
   576  0006FA  D001               	goto	l246
   577  0006FC                     l245:
   578  0006FC  9A9D               	bcf	3997,5,c	;volatile
   579  0006FE                     l246:
   580  0006FE  9A9E               	bcf	3998,5,c	;volatile
   581  000700  AE14               	btfss	OpenUSART@config,7,c
   582  000702  D002               	goto	l247
   583  000704  889D               	bsf	3997,4,c	;volatile
   584  000706  D001               	goto	l248
   585  000708                     l247:
   586  000708  989D               	bcf	3997,4,c	;volatile
   587  00070A                     l248:
   588  00070A  C00F  FFAF         	movff	OpenUSART@spbrg,4015	;volatile
   589  00070E  C010  F011         	movff	OpenUSART@spbrg+1,??_OpenUSART
   590  000712  C011  F012         	movff	??_OpenUSART,??_OpenUSART+1
   591  000716  6A13               	clrf	(??_OpenUSART+2)& (0+255),c
   592  000718  5012               	movf	??_OpenUSART+1,w,c
   593  00071A  6EB0               	movwf	4016,c	;volatile
   594  00071C  8AAC               	bsf	4012,5,c	;volatile
   595  00071E  8EAB               	bsf	4011,7,c	;volatile
   596  000720  9C94               	bcf	3988,6,c	;volatile
   597  000722  8E94               	bsf	3988,7,c	;volatile
   598  000724  B8AC               	btfsc	4012,4,c	;volatile
   599  000726  BEAC               	btfsc	4012,7,c	;volatile
   600  000728  D001               	goto	l250
   601  00072A  8C94               	bsf	3988,6,c	;volatile
   602  00072C                     l250:
   603  00072C  0012               	return	
   604  00072E                     __end_of_OpenUSART:
   605                           	opt stack 0
   606                           tblptru	equ	0xFF8
   607                           tblptrh	equ	0xFF7
   608                           tblptrl	equ	0xFF6
   609                           tablat	equ	0xFF5
   610                           intcon	equ	0xFF2
   611                           postinc0	equ	0xFEE
   612                           wreg	equ	0xFE8
   613                           postdec1	equ	0xFE5
   614                           fsr1l	equ	0xFE1
   615                           
   616 ;; *************** function _interruptSR *****************
   617 ;; Defined at:
   618 ;;		line 4 in file "../src/PIC18/Interrupt.c"
   619 ;; Parameters:    Size  Location     Type
   620 ;;		None
   621 ;; Auto vars:     Size  Location     Type
   622 ;;		None
   623 ;; Return value:  Size  Location     Type
   624 ;;		None               void
   625 ;; Registers used:
   626 ;;		wreg, status,2, status,0, cstack
   627 ;; Tracked objects:
   628 ;;		On entry : 0/0
   629 ;;		On exit  : 0/0
   630 ;;		Unchanged: 0/0
   631 ;; Data sizes:     COMRAM   BANK0   BANK1   BANK2   BANK3   BANK4   BANK5
   632 ;;      Params:         0       0       0       0       0       0       0
   633 ;;      Locals:         0       0       0       0       0       0       0
   634 ;;      Temps:         14       0       0       0       0       0       0
   635 ;;      Totals:        14       0       0       0       0       0       0
   636 ;;Total ram usage:       14 bytes
   637 ;; Hardware stack levels used:    1
   638 ;; Hardware stack levels required when called:    2
   639 ;; This function calls:
   640 ;;		_timer0isr
   641 ;; This function is called by:
   642 ;;		Interrupt level 2
   643 ;; This function uses a non-reentrant model
   644 ;;
   645                           
   646                           	psect	intcode
   647  000008                     __pintcode:
   648                           	opt stack 0
   649  000008                     _interruptSR:
   650                           	opt stack 26
   651                           
   652                           ;incstack = 0
   653  000008  CFFA F001          	movff	pclath,??_interruptSR
   654  00000C  CFFB F002          	movff	pclatu,??_interruptSR+1
   655  000010  CFE9 F003          	movff	fsr0l,??_interruptSR+2
   656  000014  ED2D  F003         	call	int_func,f	;refresh shadow registers
   657                           pclatu	equ	0xFFB
   658                           pclath	equ	0xFFA
   659                           tblptru	equ	0xFF8
   660                           tblptrh	equ	0xFF7
   661                           tblptrl	equ	0xFF6
   662                           tablat	equ	0xFF5
   663                           intcon	equ	0xFF2
   664                           postinc0	equ	0xFEE
   665                           fsr0l	equ	0xFE9
   666                           wreg	equ	0xFE8
   667                           postdec1	equ	0xFE5
   668                           fsr1l	equ	0xFE1
   669                           
   670                           	psect	intcode_body
   671  00065A                     __pintcode_body:
   672                           	opt stack 26
   673  00065A                     int_func:
   674                           	opt stack 26
   675  00065A  0006               	pop		; remove dummy address from shadow register refresh
   676  00065C  CFEA F004          	movff	fsr0h,??_interruptSR+3
   677  000660  CFE1 F005          	movff	fsr1l,??_interruptSR+4
   678  000664  CFE2 F006          	movff	fsr1h,??_interruptSR+5
   679  000668  CFD9 F007          	movff	fsr2l,??_interruptSR+6
   680  00066C  CFDA F008          	movff	fsr2h,??_interruptSR+7
   681  000670  CFF3 F009          	movff	prodl,??_interruptSR+8
   682  000674  CFF4 F00A          	movff	prodh,??_interruptSR+9
   683  000678  CFF6 F00B          	movff	tblptrl,??_interruptSR+10
   684  00067C  CFF7 F00C          	movff	tblptrh,??_interruptSR+11
   685  000680  CFF8 F00D          	movff	tblptru,??_interruptSR+12
   686  000684  CFF5 F00E          	movff	tablat,??_interruptSR+13
   687                           
   688                           ;Interrupt.c: 5: timer0isr();
   689  000688  ECB2  F003         	call	_timer0isr	;wreg free
   690  00068C  C00E  FFF5         	movff	??_interruptSR+13,tablat
   691  000690  C00D  FFF8         	movff	??_interruptSR+12,tblptru
   692  000694  C00C  FFF7         	movff	??_interruptSR+11,tblptrh
   693  000698  C00B  FFF6         	movff	??_interruptSR+10,tblptrl
   694  00069C  C00A  FFF4         	movff	??_interruptSR+9,prodh
   695  0006A0  C009  FFF3         	movff	??_interruptSR+8,prodl
   696  0006A4  C008  FFDA         	movff	??_interruptSR+7,fsr2h
   697  0006A8  C007  FFD9         	movff	??_interruptSR+6,fsr2l
   698  0006AC  C006  FFE2         	movff	??_interruptSR+5,fsr1h
   699  0006B0  C005  FFE1         	movff	??_interruptSR+4,fsr1l
   700  0006B4  C004  FFEA         	movff	??_interruptSR+3,fsr0h
   701  0006B8  C003  FFE9         	movff	??_interruptSR+2,fsr0l
   702  0006BC  C002  FFFB         	movff	??_interruptSR+1,pclatu
   703  0006C0  C001  FFFA         	movff	??_interruptSR,pclath
   704  0006C4  0011               	retfie		f
   705  0006C6                     __end_of_interruptSR:
   706                           	opt stack 0
   707                           pclatu	equ	0xFFB
   708                           pclath	equ	0xFFA
   709                           tblptru	equ	0xFF8
   710                           tblptrh	equ	0xFF7
   711                           tblptrl	equ	0xFF6
   712                           tablat	equ	0xFF5
   713                           prodh	equ	0xFF4
   714                           prodl	equ	0xFF3
   715                           intcon	equ	0xFF2
   716                           postinc0	equ	0xFEE
   717                           fsr0h	equ	0xFEA
   718                           fsr0l	equ	0xFE9
   719                           wreg	equ	0xFE8
   720                           postdec1	equ	0xFE5
   721                           fsr1h	equ	0xFE2
   722                           fsr1l	equ	0xFE1
   723                           fsr2h	equ	0xFDA
   724                           fsr2l	equ	0xFD9
   725                           
   726 ;; *************** function _timer0isr *****************
   727 ;; Defined at:
   728 ;;		line 31 in file "../src/PIC18/Clock.c"
   729 ;; Parameters:    Size  Location     Type
   730 ;;		None
   731 ;; Auto vars:     Size  Location     Type
   732 ;;		None
   733 ;; Return value:  Size  Location     Type
   734 ;;		None               void
   735 ;; Registers used:
   736 ;;		wreg, status,2, status,0, cstack
   737 ;; Tracked objects:
   738 ;;		On entry : 0/0
   739 ;;		On exit  : 0/0
   740 ;;		Unchanged: 0/0
   741 ;; Data sizes:     COMRAM   BANK0   BANK1   BANK2   BANK3   BANK4   BANK5
   742 ;;      Params:         0       0       0       0       0       0       0
   743 ;;      Locals:         0       0       0       0       0       0       0
   744 ;;      Temps:          0       0       0       0       0       0       0
   745 ;;      Totals:         0       0       0       0       0       0       0
   746 ;;Total ram usage:        0 bytes
   747 ;; Hardware stack levels used:    1
   748 ;; Hardware stack levels required when called:    1
   749 ;; This function calls:
   750 ;;		_clearTimer0OverflowFlag
   751 ;; This function is called by:
   752 ;;		_interruptSR
   753 ;; This function uses a non-reentrant model
   754 ;;
   755                           
   756                           	psect	text5
   757  000764                     __ptext5:
   758                           	opt stack 0
   759  000764                     _timer0isr:
   760                           	opt stack 26
   761                           
   762                           ;incstack = 0
   763  000764  6F2C               	movwf	_workingReg,b	;# 
   764  000766  50D8               	movf	status,w,c	;# 
   765  000768  6F2B               	movwf	_statusReg,b	;# 
   766  00076A  50E0               	movf	bsr,w,c	;# 
   767  00076C  6F2A               	movwf	_bankSelectReg,b	;# 
   768  00076E  50FF               	movf	tosu,w,c	;# 
   769  000770  50FE               	movf	tosh,w,c	;# 
   770  000772  50FD               	movf	tosl,w,c	;# 
   771                           
   772                           ;Clock.c: 43: clock++;
   773  000774  0E01               	movlw	1
   774  000776  2625               	addwf	_clock,f,c	;volatile
   775  000778  0E00               	movlw	0
   776  00077A  2226               	addwfc	_clock+1,f,c	;volatile
   777  00077C  2227               	addwfc	_clock+2,f,c	;volatile
   778  00077E  2228               	addwfc	_clock+3,f,c	;volatile
   779                           
   780                           ;Clock.c: 44: clearTimer0OverflowFlag();
   781  000780  ECF6  F003         	call	_clearTimer0OverflowFlag	;wreg free
   782  000784  0012               	return	
   783  000786                     __end_of_timer0isr:
   784                           	opt stack 0
   785                           tosu	equ	0xFFF
   786                           tosh	equ	0xFFE
   787                           tosl	equ	0xFFD
   788                           pclatu	equ	0xFFB
   789                           pclath	equ	0xFFA
   790                           tblptru	equ	0xFF8
   791                           tblptrh	equ	0xFF7
   792                           tblptrl	equ	0xFF6
   793                           tablat	equ	0xFF5
   794                           prodh	equ	0xFF4
   795                           prodl	equ	0xFF3
   796                           intcon	equ	0xFF2
   797                           postinc0	equ	0xFEE
   798                           fsr0h	equ	0xFEA
   799                           fsr0l	equ	0xFE9
   800                           wreg	equ	0xFE8
   801                           postdec1	equ	0xFE5
   802                           fsr1h	equ	0xFE2
   803                           fsr1l	equ	0xFE1
   804                           bsr	equ	0xFE0
   805                           fsr2h	equ	0xFDA
   806                           fsr2l	equ	0xFD9
   807                           status	equ	0xFD8
   808                           
   809 ;; *************** function _clearTimer0OverflowFlag *****************
   810 ;; Defined at:
   811 ;;		line 54 in file "../src/PIC18/Clock.c"
   812 ;; Parameters:    Size  Location     Type
   813 ;;		None
   814 ;; Auto vars:     Size  Location     Type
   815 ;;		None
   816 ;; Return value:  Size  Location     Type
   817 ;;		None               void
   818 ;; Registers used:
   819 ;;		None
   820 ;; Tracked objects:
   821 ;;		On entry : 0/0
   822 ;;		On exit  : 0/0
   823 ;;		Unchanged: 0/0
   824 ;; Data sizes:     COMRAM   BANK0   BANK1   BANK2   BANK3   BANK4   BANK5
   825 ;;      Params:         0       0       0       0       0       0       0
   826 ;;      Locals:         0       0       0       0       0       0       0
   827 ;;      Temps:          0       0       0       0       0       0       0
   828 ;;      Totals:         0       0       0       0       0       0       0
   829 ;;Total ram usage:        0 bytes
   830 ;; Hardware stack levels used:    1
   831 ;; This function calls:
   832 ;;		Nothing
   833 ;; This function is called by:
   834 ;;		_timer0isr
   835 ;; This function uses a non-reentrant model
   836 ;;
   837                           
   838                           	psect	text6
   839  0007EC                     __ptext6:
   840                           	opt stack 0
   841  0007EC                     _clearTimer0OverflowFlag:
   842                           	opt stack 26
   843                           
   844                           ;Clock.c: 55: INTCONbits.TMR0IF = 0;
   845                           
   846                           ;incstack = 0
   847  0007EC  94F2               	bcf	intcon,2,c	;volatile
   848  0007EE  0012               	return	
   849  0007F0                     __end_of_clearTimer0OverflowFlag:
   850                           	opt stack 0
   851                           tosu	equ	0xFFF
   852                           tosh	equ	0xFFE
   853                           tosl	equ	0xFFD
   854                           pclatu	equ	0xFFB
   855                           pclath	equ	0xFFA
   856                           tblptru	equ	0xFF8
   857                           tblptrh	equ	0xFF7
   858                           tblptrl	equ	0xFF6
   859                           tablat	equ	0xFF5
   860                           prodh	equ	0xFF4
   861                           prodl	equ	0xFF3
   862                           intcon	equ	0xFF2
   863                           postinc0	equ	0xFEE
   864                           fsr0h	equ	0xFEA
   865                           fsr0l	equ	0xFE9
   866                           wreg	equ	0xFE8
   867                           postdec1	equ	0xFE5
   868                           fsr1h	equ	0xFE2
   869                           fsr1l	equ	0xFE1
   870                           bsr	equ	0xFE0
   871                           fsr2h	equ	0xFDA
   872                           fsr2l	equ	0xFD9
   873                           status	equ	0xFD8
   874                           tosu	equ	0xFFF
   875                           tosh	equ	0xFFE
   876                           tosl	equ	0xFFD
   877                           pclatu	equ	0xFFB
   878                           pclath	equ	0xFFA
   879                           tblptru	equ	0xFF8
   880                           tblptrh	equ	0xFF7
   881                           tblptrl	equ	0xFF6
   882                           tablat	equ	0xFF5
   883                           prodh	equ	0xFF4
   884                           prodl	equ	0xFF3
   885                           intcon	equ	0xFF2
   886                           postinc0	equ	0xFEE
   887                           fsr0h	equ	0xFEA
   888                           fsr0l	equ	0xFE9
   889                           wreg	equ	0xFE8
   890                           postdec1	equ	0xFE5
   891                           fsr1h	equ	0xFE2
   892                           fsr1l	equ	0xFE1
   893                           bsr	equ	0xFE0
   894                           fsr2h	equ	0xFDA
   895                           fsr2l	equ	0xFD9
   896                           status	equ	0xFD8
   897                           
   898                           	psect	rparam
   899  0000                     tosu	equ	0xFFF
   900                           tosh	equ	0xFFE
   901                           tosl	equ	0xFFD
   902                           pclatu	equ	0xFFB
   903                           pclath	equ	0xFFA
   904                           tblptru	equ	0xFF8
   905                           tblptrh	equ	0xFF7
   906                           tblptrl	equ	0xFF6
   907                           tablat	equ	0xFF5
   908                           prodh	equ	0xFF4
   909                           prodl	equ	0xFF3
   910                           intcon	equ	0xFF2
   911                           postinc0	equ	0xFEE
   912                           fsr0h	equ	0xFEA
   913                           fsr0l	equ	0xFE9
   914                           wreg	equ	0xFE8
   915                           postdec1	equ	0xFE5
   916                           fsr1h	equ	0xFE2
   917                           fsr1l	equ	0xFE1
   918                           bsr	equ	0xFE0
   919                           fsr2h	equ	0xFDA
   920                           fsr2l	equ	0xFD9
   921                           status	equ	0xFD8


Data Sizes:
    Strings     87
    Constant    0
    Data        16
    BSS         8
    Persistent  0
    Stack       0

Auto Spaces:
    Space          Size  Autos    Used
    COMRAM          127     20      44
    BANK0           128      0       0
    BANK1           256      0       0
    BANK2           256      0       0
    BANK3           256      0       0
    BANK4           256      0       0
    BANK5           256      0       0

Pointer List with Targets:

    S755$_cp	PTR const unsigned char  size(2) Largest target is 0

    _val._str._cp	PTR const unsigned char  size(2) Largest target is 0


Critical Paths under _main in COMRAM

    _main->_OpenUSART
    _initClock->_OpenTimer0

Critical Paths under _interruptSR in COMRAM

    None.

Critical Paths under _main in BANK0

    None.

Critical Paths under _interruptSR in BANK0

    None.

Critical Paths under _main in BANK1

    None.

Critical Paths under _interruptSR in BANK1

    None.

Critical Paths under _main in BANK2

    None.

Critical Paths under _interruptSR in BANK2

    None.

Critical Paths under _main in BANK3

    None.

Critical Paths under _interruptSR in BANK3

    None.

Critical Paths under _main in BANK4

    None.

Critical Paths under _interruptSR in BANK4

    None.

Critical Paths under _main in BANK5

    None.

Critical Paths under _interruptSR in BANK5

    None.

Call Graph Tables:

 ---------------------------------------------------------------------------------
 (Depth) Function   	        Calls       Base Space   Used Autos Params    Refs
 ---------------------------------------------------------------------------------
 (0) _main                                                16    16      0     223
                          _OpenUSART
                          _initClock
 ---------------------------------------------------------------------------------
 (1) _initClock                                            0     0      0      30
                         _OpenTimer0
 ---------------------------------------------------------------------------------
 (2) _OpenTimer0                                           1     1      0      30
                                             14 COMRAM     1     1      0
 ---------------------------------------------------------------------------------
 (1) _OpenUSART                                            6     4      2     193
                                             14 COMRAM     6     4      2
 ---------------------------------------------------------------------------------
 Estimated maximum stack depth 2
 ---------------------------------------------------------------------------------
 (Depth) Function   	        Calls       Base Space   Used Autos Params    Refs
 ---------------------------------------------------------------------------------
 (3) _interruptSR                                         14    14      0       0
                                              0 COMRAM    14    14      0
                          _timer0isr
 ---------------------------------------------------------------------------------
 (4) _timer0isr                                            0     0      0       0
            _clearTimer0OverflowFlag
 ---------------------------------------------------------------------------------
 (5) _clearTimer0OverflowFlag                              0     0      0       0
 ---------------------------------------------------------------------------------
 Estimated maximum stack depth 5
 ---------------------------------------------------------------------------------

 Call Graph Graphs:

 _main (ROOT)
   _OpenUSART
   _initClock
     _OpenTimer0

 _interruptSR (ROOT)
   _timer0isr
     _clearTimer0OverflowFlag

 Address spaces:
Name               Size   Autos  Total    Cost      Usage
BIGRAM             5FF      0       0      17        0.0%
EEDATA             100      0       0       0        0.0%
BITBANK5           100      0       0      16        0.0%
BANK5              100      0       0      14        0.0%
BITBANK4           100      0       0      12        0.0%
BANK4              100      0       0      13        0.0%
BITBANK3           100      0       0      10        0.0%
BANK3              100      0       0      11        0.0%
BITBANK2           100      0       0       8        0.0%
BANK2              100      0       0       9        0.0%
BITBANK1           100      0       0       6        0.0%
BANK1              100      0       0       7        0.0%
BITBANK0            80      0       0       4        0.0%
BANK0               80      0       0       5        0.0%
BITCOMRAM           7F      0       0       0        0.0%
COMRAM              7F     14      2C       1       34.6%
BITSFR               0      0       0      40        0.0%
SFR                  0      0       0      40        0.0%
STACK                0      0       0       2        0.0%
NULL                 0      0       0       0        0.0%
ABS                  0      0      2C      15        0.0%
DATA                 0      0      2C       3        0.0%
CODE                 0      0       0       0        0.0%


Microchip Technology PIC18 Macro Assembler V1.33 build 59893 
Symbol Table                                                                                   Mon Nov 03 14:12:12 2014

                              BSR 000FE0                                l29 07DA  
                             l215 07A0                               l216 07A2  
                             l241 06E8                               l250 072C  
                             l245 06FC                               l246 06FE  
                             l247 0708                               l248 070A  
                             TOSH 000FFE                               TOSL 000FFD  
                             l901 06EA                               TOSU 000FFF  
                             l893 06DC                               wreg 000FE8  
                    __CFG_LVP$OFF 000000                      __CFG_WDT$OFF 000000  
                            STR_1 064D                              STR_2 0612  
                            STR_3 063F                              STR_4 0630  
                            STR_5 0621                              STR_6 0601  
                   __CFG_DEBUG$ON 000000                      __CFG_PWRT$ON 000000  
                            _main 07C2                              fsr0h 000FEA  
                            fsr1h 000FE2                              fsr0l 000FE9  
                            fsr2h 000FDA                              fsr1l 000FE1  
                            fsr2l 000FD9                              pclat 000FFA  
                            prodh 000FF4                              prodl 000FF3  
                            start 0018                             STATUS 000FD8  
                           ?_main 0001                             _T0CON 000FD5  
                           _RCREG 000FAE                             _RCSTA 000FAB  
                           _TMR0H 000FD7                             _TMR0L 000FD6  
                           _SPBRG 000FAF                             _TXREG 000FAD  
                           _TXSTA 000FAC                             _clock 0025  
                           tablat 000FF5                   __initialization 072E  
                    ?_interruptSR 0001                      __end_of_main 07DC  
                          ??_main 0015                     __activetblptr 000002  
                      _OpenTimer0 0786                            _SPBRGH 000FB0  
                          _SSPBUF 000FC9                __size_of_OpenUSART 0068  
                OpenTimer0@config 000F                            clear_0 0734  
                    __pdataCOMRAM 0015                      __mediumconst 0000  
                          tblptrh 000FF7                            tblptrl 000FF6  
                          tblptru 000FF8                        __accesstop 0080  
         __end_of__initialization 075A          ?_clearTimer0OverflowFlag 0001  
                  __pcstackCOMRAM 0001                 __end_of_OpenUSART 072E  
                     ?_OpenTimer0 0001                __size_of_initClock 001C  
                   _bankSelectReg 002A              __size_of_interruptSR 06BE  
              __size_of_timer0isr 0022                           _SSPCON1 000FC6  
                         __Hparam 0000                           __Lparam 0000  
                    __psmallconst 0600                           __pcinit 072E  
                         __ramtop 0600               __size_of_OpenTimer0 0020  
                         __ptext0 07C2                           __ptext1 07A6  
                         __ptext2 0786                           __ptext3 06C6  
                         __ptext5 0764                           __ptext6 07EC  
               __end_of_initClock 07C2                         _T0CONbits 000FD5  
                  __pintcode_body 065A              end_of_initialization 075A  
                   __Lmediumconst 0000                           int_func 065A  
               __end_of_timer0isr 0786                         _RCSTAbits 000FAB  
                         postdec1 000FE5                           postinc0 000FEE  
                       _PORTBbits 000F81                         _PORTCbits 000F82  
                       _TRISBbits 000F93                         _TRISCbits 000F94  
                       _TXSTAbits 000FAC                     __pidataCOMRAM 07DC  
                      _workingReg 002C  __size_of_clearTimer0OverflowFlag 0004  
             start_initialization 072E                      ??_OpenTimer0 000F  
                       _OpenUSART 06C6                  __CFG_OSC$INTIO67 000000  
              __end_of_OpenTimer0 07A6                       __pbssCOMRAM 0025  
             __end_of__stringdata 0658                        ?_OpenUSART 000F  
                   ??_interruptSR 0001                         __pintcode 0008  
                     __smallconst 0600                         _initClock 07A6  
                        _PIE1bits 000F9D                       _hexPatterns 0015  
                        _PIR1bits 000F9E                         _timer0isr 0764  
         _clearTimer0OverflowFlag 07EC               __end_of_interruptSR 06C6  
                     __stringdata 0601                         _statusReg 002B  
                      ?_initClock 0001                         copy_data0 074E  
                     ??_OpenUSART 0011                   OpenUSART@config 0014  
                        __Hrparam 0000                          __Lrparam 0000  
                      ?_timer0isr 0001                     __size_of_main 001A  
                     _interruptSR 0008         ??_clearTimer0OverflowFlag 0001  
                      _INTCONbits 000FF2                    OpenUSART@spbrg 000F  
                     ??_initClock 0010                          intlevel2 0000  
                      _OSCCONbits 000FD3                       ??_timer0isr 0001  
                     _SSPCON1bits 000FC6   __end_of_clearTimer0OverflowFlag 07F0  
                    _USART_Status 0029  
