

Microchip Technology PIC18 LITE Macro Assembler V1.33 build 59893 
                                                                                               Mon Oct 27 16:26:16 2014

Microchip Technology Omniscient Code Generator (Lite mode) build 59893
     1                           	processor	18F4520
     2                           	fnconf	rparam,??,?,0
     3                           	opt	pw 120
     4                           	opt	lm
     5                           	psect	text0,global,reloc=2,class=CODE,delta=1
     6                           	psect	cinit,global,reloc=2,class=CODE,delta=1
     7                           	psect	bssCOMRAM,global,class=COMRAM,space=1,delta=1
     8                           	psect	cstackCOMRAM,global,class=COMRAM,space=1,delta=1
     9                           	psect	text1,global,reloc=2,class=CODE,delta=1
    10                           	psect	text2,global,reloc=2,class=CODE,delta=1
    11                           	psect	text3,global,reloc=2,class=CODE,delta=1
    12                           	psect	intsave_regs,global,class=BIGRAM,space=1,delta=1
    13                           	psect	rparam,global,class=COMRAM,space=1,delta=1
    14  0000                     _INTCONbits	set	4082
    15  0000                     _PIR1bits	set	3998
    16  0000                     _PORTCbits	set	3970
    17  0000                     _RCREG	set	4014
    18  0000                     _RCSTAbits	set	4011
    19  0000                     _SSPBUF	set	4041
    20  0000                     _SSPCON1	set	4038
    21  0000                     _SSPCON1bits	set	4038
    22  0000                     _SSPSTAT	set	4039
    23  0000                     _SSPSTATbits	set	4039
    24  0000                     _T0CON	set	4053
    25  0000                     _T0CONbits	set	4053
    26  0000                     _TMR0H	set	4055
    27  0000                     _TMR0L	set	4054
    28  0000                     _TRISAbits	set	3986
    29  0000                     _TRISCbits	set	3988
    30  0000                     _TXREG	set	4013
    31  0000                     _TXSTAbits	set	4012
    32                           
    33                           ; 0 bytes @ 0x3
    34 ;;
    35 ;;Main: autosize = 0, tempsize = 0, incstack = 0, save=0
    36 ;;
    37 ;; *************** function _main *****************
    38 ;; Defined at:
    39 ;;		line 27 in file "../src/PIC18/main.c"
    40 ;; Parameters:    Size  Location     Type
    41 ;;		None
    42 ;; Auto vars:     Size  Location     Type
    43 ;;		None
    44 ;; Return value:  Size  Location     Type
    45 ;;		None               void
    46 ;; Registers used:
    47 ;;		wreg, status,2, status,0, cstack
    48 ;; Tracked objects:
    49 ;;		On entry : 0/0
    50 ;;		On exit  : 0/0
    51 ;;		Unchanged: 0/0
    52 ;; Data sizes:     COMRAM   BANK0   BANK1   BANK2   BANK3   BANK4   BANK5
    53 ;;      Params:         0       0       0       0       0       0       0
    54 ;;      Locals:         0       0       0       0       0       0       0
    55 ;;      Temps:          0       0       0       0       0       0       0
    56 ;;      Totals:         0       0       0       0       0       0       0
    57 ;;Total ram usage:        0 bytes
    58 ;; Hardware stack levels required when called:    1
    59 ;; This function calls:
    60 ;;		_OpenSPI
    61 ;;		_WriteSPI
    62 ;;		_delay
    63 ;; This function is called by:
    64 ;;		Startup code after reset
    65 ;; This function uses a non-reentrant model
    66 ;;
    67                           
    68                           	psect	text0
    69  007F64                     __ptext0:
    70                           	opt stack 0
    71  007F64                     _main:
    72                           	opt stack 30
    73                           
    74                           ;main.c: 38: OpenSPI(0b00000000, 0b00000011, 0b10000000);
    75                           
    76                           ;incstack = 0
    77  007F64  0E03               	movlw	3
    78  007F66  6E0A               	movwf	OpenSPI@bus_mode,c
    79  007F68  0E80               	movlw	128
    80  007F6A  6E0B               	movwf	OpenSPI@smp_phase,c
    81  007F6C  0E00               	movlw	0
    82  007F6E  ECD3  F03F         	call	_OpenSPI
    83  007F72                     l839:
    84                           
    85                           ;main.c: 40: WriteSPI(0x20);
    86  007F72  0E20               	movlw	32
    87  007F74  ECA6  F03F         	call	_WriteSPI
    88                           
    89                           ;main.c: 41: delay();}
    90  007F78  ECBF  F03F         	call	_delay	;wreg free
    91  007F7C  D7FA               	goto	l839
    92  007F7E                     __end_of_main:
    93                           	opt stack 0
    94                           
    95                           	psect	cinit
    96  007F36                     __pcinit:
    97                           	opt stack 0
    98  007F36                     start_initialization:
    99                           	opt stack 0
   100  007F36                     __initialization:
   101                           	opt stack 0
   102                           
   103                           ; Clear objects allocated to COMRAM (9 bytes)
   104  007F36  EE00  F001         	lfsr	0,__pbssCOMRAM
   105  007F3A  0E09               	movlw	9
   106  007F3C                     clear_0:
   107  007F3C  6AEE               	clrf	postinc0,c
   108  007F3E  06E8               	decf	wreg,f,c
   109  007F40  E1FD               	bnz	clear_0
   110  007F42                     end_of_initialization:
   111                           	opt stack 0
   112  007F42                     __end_of__initialization:
   113                           	opt stack 0
   114  007F42  0E00               	movlw	low (__Lmediumconst shr (0+16))
   115  007F44  6EF8               	movwf	tblptru,c
   116  007F46  0100               	movlb	0
   117  007F48  EFB2  F03F         	goto	_main	;jump to C main() function
   118                           tblptru	equ	0xFF8
   119                           postinc0	equ	0xFEE
   120                           wreg	equ	0xFE8
   121                           
   122                           	psect	bssCOMRAM
   123  000001                     __pbssCOMRAM:
   124                           	opt stack 0
   125  000001                     Clock@clock:
   126                           	opt stack 0
   127  000001                     	ds	4
   128  000005                     _clock:
   129                           	opt stack 0
   130  000005                     	ds	4
   131  000009                     _USART_Status:
   132                           	opt stack 0
   133  000009                     	ds	1
   134                           tblptru	equ	0xFF8
   135                           postinc0	equ	0xFEE
   136                           wreg	equ	0xFE8
   137                           
   138                           	psect	cstackCOMRAM
   139  00000A                     __pcstackCOMRAM:
   140                           	opt stack 0
   141  00000A                     OpenSPI@bus_mode:
   142                           	opt stack 0
   143  00000A                     WriteSPI@TempVar:
   144                           	opt stack 0
   145  00000A                     delay@counter:
   146                           	opt stack 0
   147                           
   148                           ; 2 bytes @ 0x0
   149  00000A                     	ds	1
   150  00000B                     OpenSPI@smp_phase:
   151                           	opt stack 0
   152  00000B                     WriteSPI@data_out:
   153                           	opt stack 0
   154                           
   155                           ; 1 bytes @ 0x1
   156  00000B                     	ds	1
   157  00000C                     OpenSPI@sync_mode:
   158                           	opt stack 0
   159                           
   160                           ; 1 bytes @ 0x2
   161  00000C                     	ds	1
   162  00000D                     tblptru	equ	0xFF8
   163                           postinc0	equ	0xFEE
   164                           wreg	equ	0xFE8
   165                           
   166 ;; *************** function _delay *****************
   167 ;; Defined at:
   168 ;;		line 13 in file "../src/PIC18/Blinky.c"
   169 ;; Parameters:    Size  Location     Type
   170 ;;		None
   171 ;; Auto vars:     Size  Location     Type
   172 ;;  counter         2    0[COMRAM] int 
   173 ;; Return value:  Size  Location     Type
   174 ;;		None               void
   175 ;; Registers used:
   176 ;;		wreg, status,2, status,0
   177 ;; Tracked objects:
   178 ;;		On entry : 0/0
   179 ;;		On exit  : 0/0
   180 ;;		Unchanged: 0/0
   181 ;; Data sizes:     COMRAM   BANK0   BANK1   BANK2   BANK3   BANK4   BANK5
   182 ;;      Params:         0       0       0       0       0       0       0
   183 ;;      Locals:         2       0       0       0       0       0       0
   184 ;;      Temps:          0       0       0       0       0       0       0
   185 ;;      Totals:         2       0       0       0       0       0       0
   186 ;;Total ram usage:        2 bytes
   187 ;; Hardware stack levels used:    1
   188 ;; This function calls:
   189 ;;		Nothing
   190 ;; This function is called by:
   191 ;;		_main
   192 ;; This function uses a non-reentrant model
   193 ;;
   194                           
   195                           	psect	text1
   196  007F7E                     __ptext1:
   197                           	opt stack 0
   198  007F7E                     _delay:
   199                           	opt stack 30
   200                           
   201                           ;Blinky.c: 14: int counter = 0;
   202                           
   203                           ;incstack = 0
   204  007F7E  0E00               	movlw	0
   205  007F80  6E0B               	movwf	delay@counter+1,c
   206  007F82  0E00               	movlw	0
   207  007F84  6E0A               	movwf	delay@counter,c
   208                           
   209                           ;Blinky.c: 15: for(counter = 0; counter<25000; counter++){
   210  007F86  0E00               	movlw	0
   211  007F88  6E0B               	movwf	delay@counter+1,c
   212  007F8A  0E00               	movlw	0
   213  007F8C  6E0A               	movwf	delay@counter,c
   214  007F8E  500B               	movf	delay@counter+1,w,c
   215  007F90  0A80               	xorlw	128
   216  007F92  0F1F               	addlw	-225
   217  007F94  0EA8               	movlw	168
   218  007F96  B4D8               	btfsc	status,2,c
   219  007F98  5C0A               	subwf	delay@counter,w,c
   220  007F9A  B0D8               	btfsc	status,0,c
   221  007F9C  D003               	goto	l9
   222  007F9E  4A0A               	infsnz	delay@counter,f,c
   223  007FA0  2A0B               	incf	delay@counter+1,f,c
   224  007FA2  D7F5               	goto	L1
   225  007FA4                     l9:
   226  007FA4  0012               	return	
   227  007FA6                     __end_of_delay:
   228                           	opt stack 0
   229                           tblptru	equ	0xFF8
   230                           postinc0	equ	0xFEE
   231                           wreg	equ	0xFE8
   232                           status	equ	0xFD8
   233                           
   234 ;; *************** function _WriteSPI *****************
   235 ;; Defined at:
   236 ;;		line 13 in file "C:\Program Files\Microchip\xc8\v1.33\sources\pic18\plib\SPI\spi_writ.c"
   237 ;; Parameters:    Size  Location     Type
   238 ;;  data_out        1    wreg     unsigned char 
   239 ;; Auto vars:     Size  Location     Type
   240 ;;  data_out        1    1[COMRAM] unsigned char 
   241 ;;  TempVar         1    0[COMRAM] unsigned char 
   242 ;; Return value:  Size  Location     Type
   243 ;;                  1    wreg      char 
   244 ;; Registers used:
   245 ;;		wreg
   246 ;; Tracked objects:
   247 ;;		On entry : 0/0
   248 ;;		On exit  : 0/0
   249 ;;		Unchanged: 0/0
   250 ;; Data sizes:     COMRAM   BANK0   BANK1   BANK2   BANK3   BANK4   BANK5
   251 ;;      Params:         0       0       0       0       0       0       0
   252 ;;      Locals:         2       0       0       0       0       0       0
   253 ;;      Temps:          0       0       0       0       0       0       0
   254 ;;      Totals:         2       0       0       0       0       0       0
   255 ;;Total ram usage:        2 bytes
   256 ;; Hardware stack levels used:    1
   257 ;; This function calls:
   258 ;;		Nothing
   259 ;; This function is called by:
   260 ;;		_main
   261 ;; This function uses a non-reentrant model
   262 ;;
   263                           
   264                           	psect	text2
   265  007F4C                     __ptext2:
   266                           	opt stack 0
   267  007F4C                     _WriteSPI:
   268                           	opt stack 30
   269                           
   270                           ;incstack = 0
   271                           ;WriteSPI@data_out stored from wreg
   272  007F4C  6E0B               	movwf	WriteSPI@data_out,c
   273  007F4E  CFC9 F00A          	movff	4041,WriteSPI@TempVar	;volatile
   274  007F52  969E               	bcf	3998,3,c	;volatile
   275  007F54  9EC6               	bcf	4038,7,c	;volatile
   276  007F56  C00B  FFC9         	movff	WriteSPI@data_out,4041	;volatile
   277  007F5A  BEC6               	btfsc	4038,7,c	;volatile
   278  007F5C  D002               	goto	l148
   279  007F5E                     l150:
   280  007F5E  A69E               	btfss	3998,3,c	;volatile
   281  007F60  D7FE               	goto	l150
   282  007F62                     l148:
   283  007F62  0012               	return	
   284  007F64                     __end_of_WriteSPI:
   285                           	opt stack 0
   286                           tblptru	equ	0xFF8
   287                           postinc0	equ	0xFEE
   288                           wreg	equ	0xFE8
   289                           status	equ	0xFD8
   290                           
   291 ;; *************** function _OpenSPI *****************
   292 ;; Defined at:
   293 ;;		line 14 in file "C:\Program Files\Microchip\xc8\v1.33\sources\pic18\plib\SPI\spi_open.c"
   294 ;; Parameters:    Size  Location     Type
   295 ;;  sync_mode       1    wreg     unsigned char 
   296 ;;  bus_mode        1    0[COMRAM] unsigned char 
   297 ;;  smp_phase       1    1[COMRAM] unsigned char 
   298 ;; Auto vars:     Size  Location     Type
   299 ;;  sync_mode       1    2[COMRAM] unsigned char 
   300 ;; Return value:  Size  Location     Type
   301 ;;		None               void
   302 ;; Registers used:
   303 ;;		wreg, status,2, status,0
   304 ;; Tracked objects:
   305 ;;		On entry : 0/0
   306 ;;		On exit  : 0/0
   307 ;;		Unchanged: 0/0
   308 ;; Data sizes:     COMRAM   BANK0   BANK1   BANK2   BANK3   BANK4   BANK5
   309 ;;      Params:         2       0       0       0       0       0       0
   310 ;;      Locals:         1       0       0       0       0       0       0
   311 ;;      Temps:          0       0       0       0       0       0       0
   312 ;;      Totals:         3       0       0       0       0       0       0
   313 ;;Total ram usage:        3 bytes
   314 ;; Hardware stack levels used:    1
   315 ;; This function calls:
   316 ;;		Nothing
   317 ;; This function is called by:
   318 ;;		_main
   319 ;; This function uses a non-reentrant model
   320 ;;
   321                           
   322                           	psect	text3
   323  007FA6                     __ptext3:
   324                           	opt stack 0
   325  007FA6                     _OpenSPI:
   326                           	opt stack 30
   327                           
   328                           ;incstack = 0
   329                           ;OpenSPI@sync_mode stored from wreg
   330  007FA6  6E0C               	movwf	OpenSPI@sync_mode,c
   331  007FA8  0E3F               	movlw	63
   332  007FAA  16C7               	andwf	4039,f,c	;volatile
   333  007FAC  0E00               	movlw	0
   334  007FAE  6EC6               	movwf	4038,c	;volatile
   335  007FB0  500C               	movf	OpenSPI@sync_mode,w,c
   336  007FB2  12C6               	iorwf	4038,f,c	;volatile
   337  007FB4  500B               	movf	OpenSPI@smp_phase,w,c
   338  007FB6  12C7               	iorwf	4039,f,c	;volatile
   339  007FB8  D005               	goto	l809
   340  007FBA                     l126:
   341  007FBA  8CC7               	bsf	4039,6,c	;volatile
   342  007FBC  D015               	goto	l813
   343  007FBE                     l128:
   344  007FBE  8CC7               	bsf	4039,6,c	;volatile
   345  007FC0                     l129:
   346  007FC0  88C6               	bsf	4038,4,c	;volatile
   347  007FC2  D012               	goto	l813
   348  007FC4                     l809:
   349  007FC4  500A               	movf	OpenSPI@bus_mode,w,c
   350                           
   351                           ; Switch size 1, requested type "space"
   352                           ; Number of cases is 3, Range of values is 0 to 3
   353                           ; switch strategies available:
   354                           ; Name         Instructions Cycles
   355                           ; simple_byte           10     6 (average)
   356                           ;	Chosen strategy is simple_byte
   357  007FC6  0A00               	xorlw	0	; case 0
   358  007FC8  B4D8               	btfsc	status,2,c
   359  007FCA  D7F7               	goto	l126
   360  007FCC  0A02               	xorlw	2	; case 2
   361  007FCE  B4D8               	btfsc	status,2,c
   362  007FD0  D7F6               	goto	l128
   363  007FD2  0A01               	xorlw	1	; case 3
   364  007FD4  B4D8               	btfsc	status,2,c
   365  007FD6  D7F4               	goto	l129
   366  007FD8  D007               	goto	l813
   367  007FDA                     l132:
   368  007FDA  8694               	bsf	3988,3,c	;volatile
   369  007FDC  8A92               	bsf	3986,5,c	;volatile
   370  007FDE  D00C               	goto	l133
   371  007FE0                     l134:
   372  007FE0  8694               	bsf	3988,3,c	;volatile
   373  007FE2  D00A               	goto	l133
   374  007FE4                     l135:
   375  007FE4  9694               	bcf	3988,3,c	;volatile
   376  007FE6  D008               	goto	l133
   377  007FE8                     l813:
   378  007FE8  500C               	movf	OpenSPI@sync_mode,w,c
   379                           
   380                           ; Switch size 1, requested type "space"
   381                           ; Number of cases is 2, Range of values is 4 to 5
   382                           ; switch strategies available:
   383                           ; Name         Instructions Cycles
   384                           ; simple_byte            7     4 (average)
   385                           ;	Chosen strategy is simple_byte
   386  007FEA  0A04               	xorlw	4	; case 4
   387  007FEC  B4D8               	btfsc	status,2,c
   388  007FEE  D7F5               	goto	l132
   389  007FF0  0A01               	xorlw	1	; case 5
   390  007FF2  B4D8               	btfsc	status,2,c
   391  007FF4  D7F5               	goto	l134
   392  007FF6  D7F6               	goto	l135
   393  007FF8                     l133:
   394  007FF8  8894               	bsf	3988,4,c	;volatile
   395  007FFA  9A94               	bcf	3988,5,c	;volatile
   396  007FFC  8AC6               	bsf	4038,5,c	;volatile
   397  007FFE  0012               	return	
   398  008000                     __end_of_OpenSPI:
   399                           	opt stack 0
   400  0000                     tblptru	equ	0xFF8
   401                           postinc0	equ	0xFEE
   402                           wreg	equ	0xFE8
   403                           status	equ	0xFD8
   404                           tblptru	equ	0xFF8
   405                           postinc0	equ	0xFEE
   406                           wreg	equ	0xFE8
   407                           status	equ	0xFD8
   408                           
   409                           	psect	rparam
   410  0000                     tblptru	equ	0xFF8
   411                           postinc0	equ	0xFEE
   412                           wreg	equ	0xFE8
   413                           status	equ	0xFD8


Data Sizes:
    Strings     0
    Constant    0
    Data        0
    BSS         9
    Persistent  0
    Stack       0

Auto Spaces:
    Space          Size  Autos    Used
    COMRAM          127      3      12
    BANK0           128      0       0
    BANK1           256      0       0
    BANK2           256      0       0
    BANK3           256      0       0
    BANK4           256      0       0
    BANK5           256      0       0

Pointer List with Targets:

    None.

Critical Paths under _main in COMRAM

    _main->_OpenSPI

Critical Paths under _main in BANK0

    None.

Critical Paths under _main in BANK1

    None.

Critical Paths under _main in BANK2

    None.

Critical Paths under _main in BANK3

    None.

Critical Paths under _main in BANK4

    None.

Critical Paths under _main in BANK5

    None.

Call Graph Tables:

 ---------------------------------------------------------------------------------
 (Depth) Function   	        Calls       Base Space   Used Autos Params    Refs
 ---------------------------------------------------------------------------------
 (0) _main                                                 0     0      0     191
                            _OpenSPI
                           _WriteSPI
                              _delay
 ---------------------------------------------------------------------------------
 (1) _delay                                                2     2      0      30
                                              0 COMRAM     2     2      0
 ---------------------------------------------------------------------------------
 (1) _WriteSPI                                             2     2      0      15
                                              0 COMRAM     2     2      0
 ---------------------------------------------------------------------------------
 (1) _OpenSPI                                              3     1      2     146
                                              0 COMRAM     3     1      2
 ---------------------------------------------------------------------------------
 Estimated maximum stack depth 1
 ---------------------------------------------------------------------------------

 Call Graph Graphs:

 _main (ROOT)
   _OpenSPI
   _WriteSPI
   _delay

 Address spaces:
Name               Size   Autos  Total    Cost      Usage
BIGRAM             5FF      0       0      17        0.0%
EEDATA             100      0       0       0        0.0%
BITBANK5           100      0       0      16        0.0%
BANK5              100      0       0      14        0.0%
BITBANK4           100      0       0      12        0.0%
BANK4              100      0       0      13        0.0%
BITBANK3           100      0       0      10        0.0%
BANK3              100      0       0      11        0.0%
BITBANK2           100      0       0       8        0.0%
BANK2              100      0       0       9        0.0%
BITBANK1           100      0       0       6        0.0%
BANK1              100      0       0       7        0.0%
BITBANK0            80      0       0       4        0.0%
BANK0               80      0       0       5        0.0%
BITCOMRAM           7F      0       0       0        0.0%
COMRAM              7F      3       C       1        9.4%
BITSFR               0      0       0      40        0.0%
SFR                  0      0       0      40        0.0%
STACK                0      0       0       2        0.0%
NULL                 0      0       0       0        0.0%
ABS                  0      0       C      15        0.0%
DATA                 0      0       C       3        0.0%
CODE                 0      0       0       0        0.0%


Microchip Technology PIC18 Macro Assembler V1.33 build 59893 
Symbol Table                                                                                   Mon Oct 27 16:26:16 2014

                      l9 7FA4              _SSPSTATbits 000FC7                      l132 7FDA  
                    l133 7FF8                      l134 7FE0                      l126 7FBA  
                    l150 7F5E                      l135 7FE4                      l128 7FBE  
                    l129 7FC0                      l148 7F62                      l813 7FE8  
                    l809 7FC4                      l839 7F72                      wreg 000FE8  
           __CFG_LVP$OFF 000000             __CFG_WDT$OFF 000000            __CFG_DEBUG$ON 000000  
           __CFG_PWRT$ON 000000                     _main 7F64                     start 0000  
        __end_of_OpenSPI 8000                    ?_main 000A                    _T0CON 000FD5  
                  _RCREG 000FAE                    _TMR0H 000FD7                    _TMR0L 000FD6  
                  _TXREG 000FAD                    _delay 7F7E                    _clock 0005  
                  status 000FD8          __initialization 7F36             __end_of_main 7F7E  
                 ??_main 000D            __activetblptr 000002                   ?_delay 000A  
       __end_of_WriteSPI 7F64                   _SSPBUF 000FC9                ??_OpenSPI 000C  
                 clear_0 7F3C          WriteSPI@TempVar 000A                   tblptru 000FF8  
             __accesstop 0080  __end_of__initialization 7F42           __pcstackCOMRAM 000A  
          __end_of_delay 7FA6                  ??_delay 000A                ?_WriteSPI 000A  
                _SSPCON1 000FC6                  _SSPSTAT 000FC7                  _OpenSPI 7FA6  
                __Hparam 0000                  __Lparam 0000                  __pcinit 7F36  
                __ramtop 0600               ??_WriteSPI 000A                  __ptext0 7F64  
                __ptext1 7F7E                  __ptext2 7F4C                  __ptext3 7FA6  
              _T0CONbits 000FD5     end_of_initialization 7F42            __Lmediumconst 0000  
              _RCSTAbits 000FAB         WriteSPI@data_out 000B                  postinc0 000FEE  
              _PORTCbits 000F82                _TRISAbits 000F92                _TRISCbits 000F94  
              _TXSTAbits 000FAC         OpenSPI@smp_phase 000B      start_initialization 7F36  
       OpenSPI@sync_mode 000C         __CFG_OSC$INTIO67 000000        __size_of_WriteSPI 0018  
            __pbssCOMRAM 0001                 ?_OpenSPI 000A           __size_of_delay 0028  
           delay@counter 000A                 _PIR1bits 000F9E          OpenSPI@bus_mode 000A  
               __Hrparam 0000                 __Lrparam 0000         __size_of_OpenSPI 005A  
               _WriteSPI 7F4C            __size_of_main 001A               _INTCONbits 000FF2  
             Clock@clock 0001              _SSPCON1bits 000FC6             _USART_Status 0009  
